target datalayout = "e-m:e-p270:32:32-p271:32:32-p272:64:64-i64:64-i128:128-f80:128-n8:16:32:64-S128"
target triple = "x86_64-pc-linux-gnu"

$_ZN3gmx28DensityFittingOutputProviderD2Ev = comdat any

$_ZN3gmx28DensityFittingOutputProviderD0Ev = comdat any

$_ZN3gmx17IMDOutputProviderD2Ev = comdat any

$_ZTSN3gmx17IMDOutputProviderE = comdat any

$_ZTIN3gmx17IMDOutputProviderE = comdat any

@_ZTVN3gmx28DensityFittingOutputProviderE = unnamed_addr constant { [6 x ptr] } { [6 x ptr] [ptr null, ptr @_ZTIN3gmx28DensityFittingOutputProviderE, ptr @_ZN3gmx28DensityFittingOutputProvider10initOutputEP8_IO_FILEiPK8t_filenmbPK16gmx_output_env_t, ptr @_ZN3gmx28DensityFittingOutputProvider12finishOutputEv, ptr @_ZN3gmx28DensityFittingOutputProviderD2Ev, ptr @_ZN3gmx28DensityFittingOutputProviderD0Ev] }, align 8
@_ZTVN10__cxxabiv120__si_class_type_infoE = external global [0 x ptr]
@_ZTSN3gmx28DensityFittingOutputProviderE = constant [37 x i8] c"N3gmx28DensityFittingOutputProviderE\00", align 1
@_ZTVN10__cxxabiv117__class_type_infoE = external global [0 x ptr]
@_ZTSN3gmx17IMDOutputProviderE = linkonce_odr constant [26 x i8] c"N3gmx17IMDOutputProviderE\00", comdat, align 1
@_ZTIN3gmx17IMDOutputProviderE = linkonce_odr constant { ptr, ptr } { ptr getelementptr inbounds (ptr, ptr @_ZTVN10__cxxabiv117__class_type_infoE, i64 2), ptr @_ZTSN3gmx17IMDOutputProviderE }, comdat, align 8
@_ZTIN3gmx28DensityFittingOutputProviderE = constant { ptr, ptr, ptr } { ptr getelementptr inbounds (ptr, ptr @_ZTVN10__cxxabiv120__si_class_type_infoE, i64 2), ptr @_ZTSN3gmx28DensityFittingOutputProviderE, ptr @_ZTIN3gmx17IMDOutputProviderE }, align 8

; Function Attrs: mustprogress nounwind uwtable
define void @_ZN3gmx28DensityFittingOutputProvider10initOutputEP8_IO_FILEiPK8t_filenmbPK16gmx_output_env_t(ptr noundef nonnull align 8 dereferenceable(8) %0, ptr noundef %1, i32 noundef %2, ptr noundef %3, i1 noundef zeroext %4, ptr noundef %5) unnamed_addr #0 align 2 {
  %7 = alloca ptr, align 8
  %8 = alloca ptr, align 8
  %9 = alloca i32, align 4
  %10 = alloca ptr, align 8
  %11 = alloca i8, align 1
  %12 = alloca ptr, align 8
  store ptr %0, ptr %7, align 8
  store ptr %1, ptr %8, align 8
  store i32 %2, ptr %9, align 4
  store ptr %3, ptr %10, align 8
  %13 = zext i1 %4 to i8
  store i8 %13, ptr %11, align 1
  store ptr %5, ptr %12, align 8
  ret void
}

; Function Attrs: mustprogress nounwind uwtable
define void @_ZN3gmx28DensityFittingOutputProvider12finishOutputEv(ptr noundef nonnull align 8 dereferenceable(8) %0) unnamed_addr #0 align 2 {
  %2 = alloca ptr, align 8
  store ptr %0, ptr %2, align 8
  ret void
}

; Function Attrs: mustprogress nounwind uwtable
define linkonce_odr void @_ZN3gmx28DensityFittingOutputProviderD2Ev(ptr noundef nonnull align 8 dereferenceable(8) %0) unnamed_addr #0 comdat align 2 {
  %2 = alloca ptr, align 8
  store ptr %0, ptr %2, align 8
  %3 = load ptr, ptr %2, align 8
  call void @_ZN3gmx17IMDOutputProviderD2Ev(ptr noundef nonnull align 8 dereferenceable(8) %3) #2
  ret void
}

; Function Attrs: mustprogress nounwind uwtable
define linkonce_odr void @_ZN3gmx28DensityFittingOutputProviderD0Ev(ptr noundef nonnull align 8 dereferenceable(8) %0) unnamed_addr #0 comdat align 2 {
  %2 = alloca ptr, align 8
  store ptr %0, ptr %2, align 8
  %3 = load ptr, ptr %2, align 8
  call void @_ZN3gmx28DensityFittingOutputProviderD2Ev(ptr noundef nonnull align 8 dereferenceable(8) %3) #2
  call void @_ZdlPv(ptr noundef %3) #3
  ret void
}

; Function Attrs: mustprogress nounwind uwtable
define linkonce_odr void @_ZN3gmx17IMDOutputProviderD2Ev(ptr noundef nonnull align 8 dereferenceable(8) %0) unnamed_addr #0 comdat align 2 {
  %2 = alloca ptr, align 8
  store ptr %0, ptr %2, align 8
  ret void
}

; Function Attrs: nobuiltin nounwind
declare void @_ZdlPv(ptr noundef) #1


!llvm.module.flags = !{!0, !1, !2, !3, !4}

!0 = !{i32 1, !"wchar_size", i32 4}
!1 = !{i32 7, !"openmp", i32 51}
!2 = !{i32 8, !"PIC Level", i32 2}
!3 = !{i32 7, !"uwtable", i32 2}
!4 = !{i32 7, !"frame-pointer", i32 2}
